
code_atmel_do_line.elf:     file format elf32-avr

Sections:
Idx Name          Size      VMA       LMA       File off  Algn
  0 .text         00000c62  00000000  00000000  00000094  2**1
                  CONTENTS, ALLOC, LOAD, READONLY, CODE
  1 .data         00000008  00800060  00000c62  00000cf6  2**0
                  CONTENTS, ALLOC, LOAD, DATA
  2 .bss          00000021  00800068  00800068  00000cfe  2**0
                  ALLOC
  3 .comment      00000030  00000000  00000000  00000cfe  2**0
                  CONTENTS, READONLY
  4 .note.gnu.avr.deviceinfo 0000003c  00000000  00000000  00000d30  2**2
                  CONTENTS, READONLY
  5 .debug_aranges 000000a0  00000000  00000000  00000d6c  2**0
                  CONTENTS, READONLY, DEBUGGING
  6 .debug_info   00000ba5  00000000  00000000  00000e0c  2**0
                  CONTENTS, READONLY, DEBUGGING
  7 .debug_abbrev 0000071e  00000000  00000000  000019b1  2**0
                  CONTENTS, READONLY, DEBUGGING
  8 .debug_line   00000aa9  00000000  00000000  000020cf  2**0
                  CONTENTS, READONLY, DEBUGGING
  9 .debug_frame  000001a8  00000000  00000000  00002b78  2**2
                  CONTENTS, READONLY, DEBUGGING
 10 .debug_str    000004f1  00000000  00000000  00002d20  2**0
                  CONTENTS, READONLY, DEBUGGING
 11 .debug_loc    00000304  00000000  00000000  00003211  2**0
                  CONTENTS, READONLY, DEBUGGING
 12 .debug_ranges 00000090  00000000  00000000  00003515  2**0
                  CONTENTS, READONLY, DEBUGGING

Disassembly of section .text:

00000000 <__vectors>:
   0:	0c 94 2a 00 	jmp	0x54	; 0x54 <__ctors_end>
   4:	0c 94 e8 03 	jmp	0x7d0	; 0x7d0 <__vector_1>
   8:	0c 94 47 00 	jmp	0x8e	; 0x8e <__bad_interrupt>
   c:	0c 94 47 00 	jmp	0x8e	; 0x8e <__bad_interrupt>
  10:	0c 94 47 00 	jmp	0x8e	; 0x8e <__bad_interrupt>
  14:	0c 94 47 00 	jmp	0x8e	; 0x8e <__bad_interrupt>
  18:	0c 94 47 00 	jmp	0x8e	; 0x8e <__bad_interrupt>
  1c:	0c 94 47 00 	jmp	0x8e	; 0x8e <__bad_interrupt>
  20:	0c 94 47 00 	jmp	0x8e	; 0x8e <__bad_interrupt>
  24:	0c 94 47 00 	jmp	0x8e	; 0x8e <__bad_interrupt>
  28:	0c 94 47 00 	jmp	0x8e	; 0x8e <__bad_interrupt>
  2c:	0c 94 47 00 	jmp	0x8e	; 0x8e <__bad_interrupt>
  30:	0c 94 47 00 	jmp	0x8e	; 0x8e <__bad_interrupt>
  34:	0c 94 47 00 	jmp	0x8e	; 0x8e <__bad_interrupt>
  38:	0c 94 47 00 	jmp	0x8e	; 0x8e <__bad_interrupt>
  3c:	0c 94 47 00 	jmp	0x8e	; 0x8e <__bad_interrupt>
  40:	0c 94 47 00 	jmp	0x8e	; 0x8e <__bad_interrupt>
  44:	0c 94 47 00 	jmp	0x8e	; 0x8e <__bad_interrupt>
  48:	0c 94 47 00 	jmp	0x8e	; 0x8e <__bad_interrupt>
  4c:	0c 94 47 00 	jmp	0x8e	; 0x8e <__bad_interrupt>
  50:	0c 94 47 00 	jmp	0x8e	; 0x8e <__bad_interrupt>

00000054 <__ctors_end>:
  54:	11 24       	eor	r1, r1
  56:	1f be       	out	0x3f, r1	; 63
  58:	cf e5       	ldi	r28, 0x5F	; 95
  5a:	d4 e0       	ldi	r29, 0x04	; 4
  5c:	de bf       	out	0x3e, r29	; 62
  5e:	cd bf       	out	0x3d, r28	; 61

00000060 <__do_copy_data>:
  60:	10 e0       	ldi	r17, 0x00	; 0
  62:	a0 e6       	ldi	r26, 0x60	; 96
  64:	b0 e0       	ldi	r27, 0x00	; 0
  66:	e2 e6       	ldi	r30, 0x62	; 98
  68:	fc e0       	ldi	r31, 0x0C	; 12
  6a:	02 c0       	rjmp	.+4      	; 0x70 <__do_copy_data+0x10>
  6c:	05 90       	lpm	r0, Z+
  6e:	0d 92       	st	X+, r0
  70:	a8 36       	cpi	r26, 0x68	; 104
  72:	b1 07       	cpc	r27, r17
  74:	d9 f7       	brne	.-10     	; 0x6c <__do_copy_data+0xc>

00000076 <__do_clear_bss>:
  76:	20 e0       	ldi	r18, 0x00	; 0
  78:	a8 e6       	ldi	r26, 0x68	; 104
  7a:	b0 e0       	ldi	r27, 0x00	; 0
  7c:	01 c0       	rjmp	.+2      	; 0x80 <.do_clear_bss_start>

0000007e <.do_clear_bss_loop>:
  7e:	1d 92       	st	X+, r1

00000080 <.do_clear_bss_start>:
  80:	a9 38       	cpi	r26, 0x89	; 137
  82:	b2 07       	cpc	r27, r18
  84:	e1 f7       	brne	.-8      	; 0x7e <.do_clear_bss_loop>
  86:	0e 94 fd 03 	call	0x7fa	; 0x7fa <main>
  8a:	0c 94 2f 06 	jmp	0xc5e	; 0xc5e <_exit>

0000008e <__bad_interrupt>:
  8e:	0c 94 00 00 	jmp	0	; 0x0 <__vectors>

00000092 <_Z9set_OCR1Al>:
		if(bit_is_clear(PINA,7)){
			while(bit_is_clear(PINA,7));
			Kd--;
		}
	}while(bit_is_set(PINB,4));
	k=0;// ve ban dau
  92:	9b 01       	movw	r18, r22
  94:	ac 01       	movw	r20, r24
  96:	6f 3f       	cpi	r22, 0xFF	; 255
  98:	71 05       	cpc	r23, r1
  9a:	81 05       	cpc	r24, r1
  9c:	91 05       	cpc	r25, r1
  9e:	29 f0       	breq	.+10     	; 0xaa <_Z9set_OCR1Al+0x18>
  a0:	24 f0       	brlt	.+8      	; 0xaa <_Z9set_OCR1Al+0x18>
  a2:	2f ef       	ldi	r18, 0xFF	; 255
  a4:	30 e0       	ldi	r19, 0x00	; 0
  a6:	40 e0       	ldi	r20, 0x00	; 0
  a8:	50 e0       	ldi	r21, 0x00	; 0
  aa:	55 23       	and	r21, r21
  ac:	1c f4       	brge	.+6      	; 0xb4 <_Z9set_OCR1Al+0x22>
  ae:	20 e0       	ldi	r18, 0x00	; 0
  b0:	30 e0       	ldi	r19, 0x00	; 0
  b2:	a9 01       	movw	r20, r18
  b4:	a0 e2       	ldi	r26, 0x20	; 32
  b6:	be e4       	ldi	r27, 0x4E	; 78
  b8:	0e 94 f3 05 	call	0xbe6	; 0xbe6 <__muluhisi3>
  bc:	2f ef       	ldi	r18, 0xFF	; 255
  be:	30 e0       	ldi	r19, 0x00	; 0
  c0:	40 e0       	ldi	r20, 0x00	; 0
  c2:	50 e0       	ldi	r21, 0x00	; 0
  c4:	0e 94 d4 05 	call	0xba8	; 0xba8 <__divmodsi4>
  c8:	3b bd       	out	0x2b, r19	; 43
  ca:	2a bd       	out	0x2a, r18	; 42
  cc:	08 95       	ret

000000ce <_Z9set_OCR1Bl>:
  ce:	9b 01       	movw	r18, r22
  d0:	ac 01       	movw	r20, r24
  d2:	6f 3f       	cpi	r22, 0xFF	; 255
  d4:	71 05       	cpc	r23, r1
  d6:	81 05       	cpc	r24, r1
  d8:	91 05       	cpc	r25, r1
  da:	29 f0       	breq	.+10     	; 0xe6 <_Z9set_OCR1Bl+0x18>
  dc:	24 f0       	brlt	.+8      	; 0xe6 <_Z9set_OCR1Bl+0x18>
  de:	2f ef       	ldi	r18, 0xFF	; 255
  e0:	30 e0       	ldi	r19, 0x00	; 0
  e2:	40 e0       	ldi	r20, 0x00	; 0
  e4:	50 e0       	ldi	r21, 0x00	; 0
  e6:	55 23       	and	r21, r21
  e8:	1c f4       	brge	.+6      	; 0xf0 <_Z9set_OCR1Bl+0x22>
  ea:	20 e0       	ldi	r18, 0x00	; 0
  ec:	30 e0       	ldi	r19, 0x00	; 0
  ee:	a9 01       	movw	r20, r18
  f0:	a0 e2       	ldi	r26, 0x20	; 32
  f2:	be e4       	ldi	r27, 0x4E	; 78
  f4:	0e 94 f3 05 	call	0xbe6	; 0xbe6 <__muluhisi3>
  f8:	2f ef       	ldi	r18, 0xFF	; 255
  fa:	30 e0       	ldi	r19, 0x00	; 0
  fc:	40 e0       	ldi	r20, 0x00	; 0
  fe:	50 e0       	ldi	r21, 0x00	; 0
 100:	0e 94 d4 05 	call	0xba8	; 0xba8 <__divmodsi4>
 104:	39 bd       	out	0x29, r19	; 41
 106:	28 bd       	out	0x28, r18	; 40
 108:	08 95       	ret

0000010a <_Z12caculate_PIDv>:
 10a:	4f 92       	push	r4
 10c:	5f 92       	push	r5
 10e:	6f 92       	push	r6
 110:	7f 92       	push	r7
 112:	8f 92       	push	r8
 114:	9f 92       	push	r9
 116:	af 92       	push	r10
 118:	bf 92       	push	r11
 11a:	cf 92       	push	r12
 11c:	df 92       	push	r13
 11e:	ef 92       	push	r14
 120:	ff 92       	push	r15
 122:	cf 93       	push	r28
 124:	df 93       	push	r29
 126:	00 d0       	rcall	.+0      	; 0x128 <_Z12caculate_PIDv+0x1e>
 128:	00 d0       	rcall	.+0      	; 0x12a <_Z12caculate_PIDv+0x20>
 12a:	cd b7       	in	r28, 0x3d	; 61
 12c:	de b7       	in	r29, 0x3e	; 62
 12e:	40 90 80 00 	lds	r4, 0x0080	; 0x800080 <error>
 132:	50 90 81 00 	lds	r5, 0x0081	; 0x800081 <error+0x1>
 136:	60 90 82 00 	lds	r6, 0x0082	; 0x800082 <error+0x2>
 13a:	70 90 83 00 	lds	r7, 0x0083	; 0x800083 <error+0x3>
 13e:	40 92 7c 00 	sts	0x007C, r4	; 0x80007c <P>
 142:	50 92 7d 00 	sts	0x007D, r5	; 0x80007d <P+0x1>
 146:	60 92 7e 00 	sts	0x007E, r6	; 0x80007e <P+0x2>
 14a:	70 92 7f 00 	sts	0x007F, r7	; 0x80007f <P+0x3>
 14e:	20 91 68 00 	lds	r18, 0x0068	; 0x800068 <__data_end>
 152:	30 91 69 00 	lds	r19, 0x0069	; 0x800069 <__data_end+0x1>
 156:	40 91 6a 00 	lds	r20, 0x006A	; 0x80006a <__data_end+0x2>
 15a:	50 91 6b 00 	lds	r21, 0x006B	; 0x80006b <__data_end+0x3>
 15e:	60 91 78 00 	lds	r22, 0x0078	; 0x800078 <I>
 162:	70 91 79 00 	lds	r23, 0x0079	; 0x800079 <I+0x1>
 166:	80 91 7a 00 	lds	r24, 0x007A	; 0x80007a <I+0x2>
 16a:	90 91 7b 00 	lds	r25, 0x007B	; 0x80007b <I+0x3>
 16e:	0e 94 4b 04 	call	0x896	; 0x896 <__addsf3>
 172:	6b 01       	movw	r12, r22
 174:	7c 01       	movw	r14, r24
 176:	60 93 78 00 	sts	0x0078, r22	; 0x800078 <I>
 17a:	70 93 79 00 	sts	0x0079, r23	; 0x800079 <I+0x1>
 17e:	80 93 7a 00 	sts	0x007A, r24	; 0x80007a <I+0x2>
 182:	90 93 7b 00 	sts	0x007B, r25	; 0x80007b <I+0x3>
 186:	20 91 6c 00 	lds	r18, 0x006C	; 0x80006c <prev_error>
 18a:	30 91 6d 00 	lds	r19, 0x006D	; 0x80006d <prev_error+0x1>
 18e:	40 91 6e 00 	lds	r20, 0x006E	; 0x80006e <prev_error+0x2>
 192:	50 91 6f 00 	lds	r21, 0x006F	; 0x80006f <prev_error+0x3>
 196:	c3 01       	movw	r24, r6
 198:	b2 01       	movw	r22, r4
 19a:	0e 94 4a 04 	call	0x894	; 0x894 <__subsf3>
 19e:	4b 01       	movw	r8, r22
 1a0:	5c 01       	movw	r10, r24
 1a2:	60 93 74 00 	sts	0x0074, r22	; 0x800074 <D>
 1a6:	70 93 75 00 	sts	0x0075, r23	; 0x800075 <D+0x1>
 1aa:	80 93 76 00 	sts	0x0076, r24	; 0x800076 <D+0x2>
 1ae:	90 93 77 00 	sts	0x0077, r25	; 0x800077 <D+0x3>
 1b2:	20 91 64 00 	lds	r18, 0x0064	; 0x800064 <Kp>
 1b6:	30 91 65 00 	lds	r19, 0x0065	; 0x800065 <Kp+0x1>
 1ba:	40 91 66 00 	lds	r20, 0x0066	; 0x800066 <Kp+0x2>
 1be:	50 91 67 00 	lds	r21, 0x0067	; 0x800067 <Kp+0x3>
 1c2:	c3 01       	movw	r24, r6
 1c4:	b2 01       	movw	r22, r4
 1c6:	0e 94 67 05 	call	0xace	; 0xace <__mulsf3>
 1ca:	69 83       	std	Y+1, r22	; 0x01
 1cc:	7a 83       	std	Y+2, r23	; 0x02
 1ce:	8b 83       	std	Y+3, r24	; 0x03
 1d0:	9c 83       	std	Y+4, r25	; 0x04
 1d2:	20 91 84 00 	lds	r18, 0x0084	; 0x800084 <Ki>
 1d6:	30 91 85 00 	lds	r19, 0x0085	; 0x800085 <Ki+0x1>
 1da:	40 91 86 00 	lds	r20, 0x0086	; 0x800086 <Ki+0x2>
 1de:	50 91 87 00 	lds	r21, 0x0087	; 0x800087 <Ki+0x3>
 1e2:	c7 01       	movw	r24, r14
 1e4:	b6 01       	movw	r22, r12
 1e6:	0e 94 67 05 	call	0xace	; 0xace <__mulsf3>
 1ea:	9b 01       	movw	r18, r22
 1ec:	ac 01       	movw	r20, r24
 1ee:	69 81       	ldd	r22, Y+1	; 0x01
 1f0:	7a 81       	ldd	r23, Y+2	; 0x02
 1f2:	8b 81       	ldd	r24, Y+3	; 0x03
 1f4:	9c 81       	ldd	r25, Y+4	; 0x04
 1f6:	0e 94 4b 04 	call	0x896	; 0x896 <__addsf3>
 1fa:	69 83       	std	Y+1, r22	; 0x01
 1fc:	7a 83       	std	Y+2, r23	; 0x02
 1fe:	8b 83       	std	Y+3, r24	; 0x03
 200:	9c 83       	std	Y+4, r25	; 0x04
 202:	20 91 60 00 	lds	r18, 0x0060	; 0x800060 <__DATA_REGION_ORIGIN__>
 206:	30 91 61 00 	lds	r19, 0x0061	; 0x800061 <__DATA_REGION_ORIGIN__+0x1>
 20a:	40 91 62 00 	lds	r20, 0x0062	; 0x800062 <__DATA_REGION_ORIGIN__+0x2>
 20e:	50 91 63 00 	lds	r21, 0x0063	; 0x800063 <__DATA_REGION_ORIGIN__+0x3>
 212:	c5 01       	movw	r24, r10
 214:	b4 01       	movw	r22, r8
 216:	0e 94 67 05 	call	0xace	; 0xace <__mulsf3>
 21a:	9b 01       	movw	r18, r22
 21c:	ac 01       	movw	r20, r24
 21e:	69 81       	ldd	r22, Y+1	; 0x01
 220:	7a 81       	ldd	r23, Y+2	; 0x02
 222:	8b 81       	ldd	r24, Y+3	; 0x03
 224:	9c 81       	ldd	r25, Y+4	; 0x04
 226:	0e 94 4b 04 	call	0x896	; 0x896 <__addsf3>
 22a:	60 93 70 00 	sts	0x0070, r22	; 0x800070 <PID_value>
 22e:	70 93 71 00 	sts	0x0071, r23	; 0x800071 <PID_value+0x1>
 232:	80 93 72 00 	sts	0x0072, r24	; 0x800072 <PID_value+0x2>
 236:	90 93 73 00 	sts	0x0073, r25	; 0x800073 <PID_value+0x3>
 23a:	c0 92 68 00 	sts	0x0068, r12	; 0x800068 <__data_end>
 23e:	d0 92 69 00 	sts	0x0069, r13	; 0x800069 <__data_end+0x1>
 242:	e0 92 6a 00 	sts	0x006A, r14	; 0x80006a <__data_end+0x2>
 246:	f0 92 6b 00 	sts	0x006B, r15	; 0x80006b <__data_end+0x3>
 24a:	40 92 6c 00 	sts	0x006C, r4	; 0x80006c <prev_error>
 24e:	50 92 6d 00 	sts	0x006D, r5	; 0x80006d <prev_error+0x1>
 252:	60 92 6e 00 	sts	0x006E, r6	; 0x80006e <prev_error+0x2>
 256:	70 92 6f 00 	sts	0x006F, r7	; 0x80006f <prev_error+0x3>
 25a:	0f 90       	pop	r0
 25c:	0f 90       	pop	r0
 25e:	0f 90       	pop	r0
 260:	0f 90       	pop	r0
 262:	df 91       	pop	r29
 264:	cf 91       	pop	r28
 266:	ff 90       	pop	r15
 268:	ef 90       	pop	r14
 26a:	df 90       	pop	r13
 26c:	cf 90       	pop	r12
 26e:	bf 90       	pop	r11
 270:	af 90       	pop	r10
 272:	9f 90       	pop	r9
 274:	8f 90       	pop	r8
 276:	7f 90       	pop	r7
 278:	6f 90       	pop	r6
 27a:	5f 90       	pop	r5
 27c:	4f 90       	pop	r4
 27e:	08 95       	ret

00000280 <_Z7forwardv>:
 280:	88 b3       	in	r24, 0x18	; 24
 282:	81 60       	ori	r24, 0x01	; 1
 284:	88 bb       	out	0x18, r24	; 24
 286:	88 b3       	in	r24, 0x18	; 24
 288:	8d 7f       	andi	r24, 0xFD	; 253
 28a:	88 bb       	out	0x18, r24	; 24
 28c:	88 b3       	in	r24, 0x18	; 24
 28e:	84 60       	ori	r24, 0x04	; 4
 290:	88 bb       	out	0x18, r24	; 24
 292:	88 b3       	in	r24, 0x18	; 24
 294:	87 7f       	andi	r24, 0xF7	; 247
 296:	88 bb       	out	0x18, r24	; 24
 298:	08 95       	ret

0000029a <_Z4leftv>:
 29a:	88 b3       	in	r24, 0x18	; 24
 29c:	8e 7f       	andi	r24, 0xFE	; 254
 29e:	88 bb       	out	0x18, r24	; 24
 2a0:	88 b3       	in	r24, 0x18	; 24
 2a2:	8d 7f       	andi	r24, 0xFD	; 253
 2a4:	88 bb       	out	0x18, r24	; 24
 2a6:	88 b3       	in	r24, 0x18	; 24
 2a8:	84 60       	ori	r24, 0x04	; 4
 2aa:	88 bb       	out	0x18, r24	; 24
 2ac:	88 b3       	in	r24, 0x18	; 24
 2ae:	87 7f       	andi	r24, 0xF7	; 247
 2b0:	88 bb       	out	0x18, r24	; 24
 2b2:	08 95       	ret

000002b4 <_Z5rightv>:
 2b4:	88 b3       	in	r24, 0x18	; 24
 2b6:	81 60       	ori	r24, 0x01	; 1
 2b8:	88 bb       	out	0x18, r24	; 24
 2ba:	88 b3       	in	r24, 0x18	; 24
 2bc:	8d 7f       	andi	r24, 0xFD	; 253
 2be:	88 bb       	out	0x18, r24	; 24
 2c0:	88 b3       	in	r24, 0x18	; 24
 2c2:	8b 7f       	andi	r24, 0xFB	; 251
 2c4:	88 bb       	out	0x18, r24	; 24
 2c6:	88 b3       	in	r24, 0x18	; 24
 2c8:	87 7f       	andi	r24, 0xF7	; 247
 2ca:	88 bb       	out	0x18, r24	; 24
 2cc:	08 95       	ret

000002ce <_Z11rorate_leftv>:
 2ce:	88 b3       	in	r24, 0x18	; 24
 2d0:	8e 7f       	andi	r24, 0xFE	; 254
 2d2:	88 bb       	out	0x18, r24	; 24
 2d4:	88 b3       	in	r24, 0x18	; 24
 2d6:	82 60       	ori	r24, 0x02	; 2
 2d8:	88 bb       	out	0x18, r24	; 24
 2da:	88 b3       	in	r24, 0x18	; 24
 2dc:	84 60       	ori	r24, 0x04	; 4
 2de:	88 bb       	out	0x18, r24	; 24
 2e0:	88 b3       	in	r24, 0x18	; 24
 2e2:	87 7f       	andi	r24, 0xF7	; 247
 2e4:	88 bb       	out	0x18, r24	; 24
 2e6:	08 95       	ret

000002e8 <_Z12rorate_rightv>:
 2e8:	88 b3       	in	r24, 0x18	; 24
 2ea:	81 60       	ori	r24, 0x01	; 1
 2ec:	88 bb       	out	0x18, r24	; 24
 2ee:	88 b3       	in	r24, 0x18	; 24
 2f0:	8d 7f       	andi	r24, 0xFD	; 253
 2f2:	88 bb       	out	0x18, r24	; 24
 2f4:	88 b3       	in	r24, 0x18	; 24
 2f6:	8b 7f       	andi	r24, 0xFB	; 251
 2f8:	88 bb       	out	0x18, r24	; 24
 2fa:	88 b3       	in	r24, 0x18	; 24
 2fc:	88 60       	ori	r24, 0x08	; 8
 2fe:	88 bb       	out	0x18, r24	; 24
 300:	08 95       	ret

00000302 <_Z4stopv>:
 302:	88 b3       	in	r24, 0x18	; 24
 304:	8e 7f       	andi	r24, 0xFE	; 254
 306:	88 bb       	out	0x18, r24	; 24
 308:	88 b3       	in	r24, 0x18	; 24
 30a:	8d 7f       	andi	r24, 0xFD	; 253
 30c:	88 bb       	out	0x18, r24	; 24
 30e:	88 b3       	in	r24, 0x18	; 24
 310:	8b 7f       	andi	r24, 0xFB	; 251
 312:	88 bb       	out	0x18, r24	; 24
 314:	88 b3       	in	r24, 0x18	; 24
 316:	87 7f       	andi	r24, 0xF7	; 247
 318:	88 bb       	out	0x18, r24	; 24
 31a:	08 95       	ret

0000031c <_Z11read_sensorv>:
 31c:	c8 9b       	sbis	0x19, 0	; 25
 31e:	0a c0       	rjmp	.+20     	; 0x334 <_Z11read_sensorv+0x18>
 320:	c9 9b       	sbis	0x19, 1	; 25
 322:	0a c0       	rjmp	.+20     	; 0x338 <_Z11read_sensorv+0x1c>
 324:	ca 99       	sbic	0x19, 2	; 25
 326:	0a c0       	rjmp	.+20     	; 0x33c <_Z11read_sensorv+0x20>
 328:	cb 9b       	sbis	0x19, 3	; 25
 32a:	0a c0       	rjmp	.+20     	; 0x340 <_Z11read_sensorv+0x24>
 32c:	cc 99       	sbic	0x19, 4	; 25
 32e:	0a c0       	rjmp	.+20     	; 0x344 <_Z11read_sensorv+0x28>
 330:	80 e0       	ldi	r24, 0x00	; 0
 332:	09 c0       	rjmp	.+18     	; 0x346 <_Z11read_sensorv+0x2a>
 334:	80 e0       	ldi	r24, 0x00	; 0
 336:	07 c0       	rjmp	.+14     	; 0x346 <_Z11read_sensorv+0x2a>
 338:	80 e0       	ldi	r24, 0x00	; 0
 33a:	05 c0       	rjmp	.+10     	; 0x346 <_Z11read_sensorv+0x2a>
 33c:	80 e0       	ldi	r24, 0x00	; 0
 33e:	03 c0       	rjmp	.+6      	; 0x346 <_Z11read_sensorv+0x2a>
 340:	80 e0       	ldi	r24, 0x00	; 0
 342:	01 c0       	rjmp	.+2      	; 0x346 <_Z11read_sensorv+0x2a>
 344:	81 e0       	ldi	r24, 0x01	; 1
 346:	88 23       	and	r24, r24
 348:	59 f0       	breq	.+22     	; 0x360 <_Z11read_sensorv+0x44>
 34a:	10 92 80 00 	sts	0x0080, r1	; 0x800080 <error>
 34e:	10 92 81 00 	sts	0x0081, r1	; 0x800081 <error+0x1>
 352:	10 92 82 00 	sts	0x0082, r1	; 0x800082 <error+0x2>
 356:	10 92 83 00 	sts	0x0083, r1	; 0x800083 <error+0x3>
 35a:	0e 94 40 01 	call	0x280	; 0x280 <_Z7forwardv>
 35e:	08 95       	ret
 360:	c8 9b       	sbis	0x19, 0	; 25
 362:	08 c0       	rjmp	.+16     	; 0x374 <_Z11read_sensorv+0x58>
 364:	c9 99       	sbic	0x19, 1	; 25
 366:	06 c0       	rjmp	.+12     	; 0x374 <_Z11read_sensorv+0x58>
 368:	ca 99       	sbic	0x19, 2	; 25
 36a:	04 c0       	rjmp	.+8      	; 0x374 <_Z11read_sensorv+0x58>
 36c:	cb 9b       	sbis	0x19, 3	; 25
 36e:	02 c0       	rjmp	.+4      	; 0x374 <_Z11read_sensorv+0x58>
 370:	cc 99       	sbic	0x19, 4	; 25
 372:	81 e0       	ldi	r24, 0x01	; 1
 374:	88 23       	and	r24, r24
 376:	79 f0       	breq	.+30     	; 0x396 <_Z11read_sensorv+0x7a>
 378:	80 e0       	ldi	r24, 0x00	; 0
 37a:	90 e0       	ldi	r25, 0x00	; 0
 37c:	a0 e8       	ldi	r26, 0x80	; 128
 37e:	bf eb       	ldi	r27, 0xBF	; 191
 380:	80 93 80 00 	sts	0x0080, r24	; 0x800080 <error>
 384:	90 93 81 00 	sts	0x0081, r25	; 0x800081 <error+0x1>
 388:	a0 93 82 00 	sts	0x0082, r26	; 0x800082 <error+0x2>
 38c:	b0 93 83 00 	sts	0x0083, r27	; 0x800083 <error+0x3>
 390:	0e 94 5a 01 	call	0x2b4	; 0x2b4 <_Z5rightv>
 394:	08 95       	ret
 396:	c8 9b       	sbis	0x19, 0	; 25
 398:	08 c0       	rjmp	.+16     	; 0x3aa <_Z11read_sensorv+0x8e>
 39a:	c9 9b       	sbis	0x19, 1	; 25
 39c:	06 c0       	rjmp	.+12     	; 0x3aa <_Z11read_sensorv+0x8e>
 39e:	ca 99       	sbic	0x19, 2	; 25
 3a0:	04 c0       	rjmp	.+8      	; 0x3aa <_Z11read_sensorv+0x8e>
 3a2:	cb 99       	sbic	0x19, 3	; 25
 3a4:	02 c0       	rjmp	.+4      	; 0x3aa <_Z11read_sensorv+0x8e>
 3a6:	cc 99       	sbic	0x19, 4	; 25
 3a8:	81 e0       	ldi	r24, 0x01	; 1
 3aa:	88 23       	and	r24, r24
 3ac:	79 f0       	breq	.+30     	; 0x3cc <_Z11read_sensorv+0xb0>
 3ae:	80 e0       	ldi	r24, 0x00	; 0
 3b0:	90 e0       	ldi	r25, 0x00	; 0
 3b2:	a0 e8       	ldi	r26, 0x80	; 128
 3b4:	bf e3       	ldi	r27, 0x3F	; 63
 3b6:	80 93 80 00 	sts	0x0080, r24	; 0x800080 <error>
 3ba:	90 93 81 00 	sts	0x0081, r25	; 0x800081 <error+0x1>
 3be:	a0 93 82 00 	sts	0x0082, r26	; 0x800082 <error+0x2>
 3c2:	b0 93 83 00 	sts	0x0083, r27	; 0x800083 <error+0x3>
 3c6:	0e 94 4d 01 	call	0x29a	; 0x29a <_Z4leftv>
 3ca:	08 95       	ret
 3cc:	c8 9b       	sbis	0x19, 0	; 25
 3ce:	08 c0       	rjmp	.+16     	; 0x3e0 <_Z11read_sensorv+0xc4>
 3d0:	c9 99       	sbic	0x19, 1	; 25
 3d2:	06 c0       	rjmp	.+12     	; 0x3e0 <_Z11read_sensorv+0xc4>
 3d4:	ca 9b       	sbis	0x19, 2	; 25
 3d6:	04 c0       	rjmp	.+8      	; 0x3e0 <_Z11read_sensorv+0xc4>
 3d8:	cb 9b       	sbis	0x19, 3	; 25
 3da:	02 c0       	rjmp	.+4      	; 0x3e0 <_Z11read_sensorv+0xc4>
 3dc:	cc 99       	sbic	0x19, 4	; 25
 3de:	81 e0       	ldi	r24, 0x01	; 1
 3e0:	88 23       	and	r24, r24
 3e2:	79 f0       	breq	.+30     	; 0x402 <__DATA_REGION_LENGTH__+0x2>
 3e4:	80 e0       	ldi	r24, 0x00	; 0
 3e6:	90 e0       	ldi	r25, 0x00	; 0
 3e8:	a0 e0       	ldi	r26, 0x00	; 0
 3ea:	b0 ec       	ldi	r27, 0xC0	; 192
 3ec:	80 93 80 00 	sts	0x0080, r24	; 0x800080 <error>
 3f0:	90 93 81 00 	sts	0x0081, r25	; 0x800081 <error+0x1>
 3f4:	a0 93 82 00 	sts	0x0082, r26	; 0x800082 <error+0x2>
 3f8:	b0 93 83 00 	sts	0x0083, r27	; 0x800083 <error+0x3>
 3fc:	0e 94 5a 01 	call	0x2b4	; 0x2b4 <_Z5rightv>
 400:	08 95       	ret
 402:	c8 9b       	sbis	0x19, 0	; 25
 404:	08 c0       	rjmp	.+16     	; 0x416 <__DATA_REGION_LENGTH__+0x16>
 406:	c9 9b       	sbis	0x19, 1	; 25
 408:	06 c0       	rjmp	.+12     	; 0x416 <__DATA_REGION_LENGTH__+0x16>
 40a:	ca 9b       	sbis	0x19, 2	; 25
 40c:	04 c0       	rjmp	.+8      	; 0x416 <__DATA_REGION_LENGTH__+0x16>
 40e:	cb 99       	sbic	0x19, 3	; 25
 410:	02 c0       	rjmp	.+4      	; 0x416 <__DATA_REGION_LENGTH__+0x16>
 412:	cc 99       	sbic	0x19, 4	; 25
 414:	81 e0       	ldi	r24, 0x01	; 1
 416:	88 23       	and	r24, r24
 418:	79 f0       	breq	.+30     	; 0x438 <__DATA_REGION_LENGTH__+0x38>
 41a:	80 e0       	ldi	r24, 0x00	; 0
 41c:	90 e0       	ldi	r25, 0x00	; 0
 41e:	a0 e0       	ldi	r26, 0x00	; 0
 420:	b0 e4       	ldi	r27, 0x40	; 64
 422:	80 93 80 00 	sts	0x0080, r24	; 0x800080 <error>
 426:	90 93 81 00 	sts	0x0081, r25	; 0x800081 <error+0x1>
 42a:	a0 93 82 00 	sts	0x0082, r26	; 0x800082 <error+0x2>
 42e:	b0 93 83 00 	sts	0x0083, r27	; 0x800083 <error+0x3>
 432:	0e 94 4d 01 	call	0x29a	; 0x29a <_Z4leftv>
 436:	08 95       	ret
 438:	c8 99       	sbic	0x19, 0	; 25
 43a:	08 c0       	rjmp	.+16     	; 0x44c <__DATA_REGION_LENGTH__+0x4c>
 43c:	c9 99       	sbic	0x19, 1	; 25
 43e:	06 c0       	rjmp	.+12     	; 0x44c <__DATA_REGION_LENGTH__+0x4c>
 440:	ca 9b       	sbis	0x19, 2	; 25
 442:	04 c0       	rjmp	.+8      	; 0x44c <__DATA_REGION_LENGTH__+0x4c>
 444:	cb 9b       	sbis	0x19, 3	; 25
 446:	02 c0       	rjmp	.+4      	; 0x44c <__DATA_REGION_LENGTH__+0x4c>
 448:	cc 99       	sbic	0x19, 4	; 25
 44a:	81 e0       	ldi	r24, 0x01	; 1
 44c:	88 23       	and	r24, r24
 44e:	79 f0       	breq	.+30     	; 0x46e <__stack+0xf>
 450:	80 e0       	ldi	r24, 0x00	; 0
 452:	90 e0       	ldi	r25, 0x00	; 0
 454:	a0 e4       	ldi	r26, 0x40	; 64
 456:	b0 ec       	ldi	r27, 0xC0	; 192
 458:	80 93 80 00 	sts	0x0080, r24	; 0x800080 <error>
 45c:	90 93 81 00 	sts	0x0081, r25	; 0x800081 <error+0x1>
 460:	a0 93 82 00 	sts	0x0082, r26	; 0x800082 <error+0x2>
 464:	b0 93 83 00 	sts	0x0083, r27	; 0x800083 <error+0x3>
 468:	0e 94 5a 01 	call	0x2b4	; 0x2b4 <_Z5rightv>
 46c:	08 95       	ret
 46e:	c8 9b       	sbis	0x19, 0	; 25
 470:	08 c0       	rjmp	.+16     	; 0x482 <__stack+0x23>
 472:	c9 9b       	sbis	0x19, 1	; 25
 474:	06 c0       	rjmp	.+12     	; 0x482 <__stack+0x23>
 476:	ca 9b       	sbis	0x19, 2	; 25
 478:	04 c0       	rjmp	.+8      	; 0x482 <__stack+0x23>
 47a:	cb 99       	sbic	0x19, 3	; 25
 47c:	02 c0       	rjmp	.+4      	; 0x482 <__stack+0x23>
 47e:	cc 9b       	sbis	0x19, 4	; 25
 480:	81 e0       	ldi	r24, 0x01	; 1
 482:	88 23       	and	r24, r24
 484:	79 f0       	breq	.+30     	; 0x4a4 <__stack+0x45>
 486:	80 e0       	ldi	r24, 0x00	; 0
 488:	90 e0       	ldi	r25, 0x00	; 0
 48a:	a0 e4       	ldi	r26, 0x40	; 64
 48c:	b0 e4       	ldi	r27, 0x40	; 64
 48e:	80 93 80 00 	sts	0x0080, r24	; 0x800080 <error>
 492:	90 93 81 00 	sts	0x0081, r25	; 0x800081 <error+0x1>
 496:	a0 93 82 00 	sts	0x0082, r26	; 0x800082 <error+0x2>
 49a:	b0 93 83 00 	sts	0x0083, r27	; 0x800083 <error+0x3>
 49e:	0e 94 4d 01 	call	0x29a	; 0x29a <_Z4leftv>
 4a2:	08 95       	ret
 4a4:	c8 99       	sbic	0x19, 0	; 25
 4a6:	08 c0       	rjmp	.+16     	; 0x4b8 <__stack+0x59>
 4a8:	c9 9b       	sbis	0x19, 1	; 25
 4aa:	06 c0       	rjmp	.+12     	; 0x4b8 <__stack+0x59>
 4ac:	ca 9b       	sbis	0x19, 2	; 25
 4ae:	04 c0       	rjmp	.+8      	; 0x4b8 <__stack+0x59>
 4b0:	cb 9b       	sbis	0x19, 3	; 25
 4b2:	02 c0       	rjmp	.+4      	; 0x4b8 <__stack+0x59>
 4b4:	cc 99       	sbic	0x19, 4	; 25
 4b6:	81 e0       	ldi	r24, 0x01	; 1
 4b8:	88 23       	and	r24, r24
 4ba:	79 f0       	breq	.+30     	; 0x4da <__stack+0x7b>
 4bc:	80 e0       	ldi	r24, 0x00	; 0
 4be:	90 e0       	ldi	r25, 0x00	; 0
 4c0:	a0 e8       	ldi	r26, 0x80	; 128
 4c2:	b0 ec       	ldi	r27, 0xC0	; 192
 4c4:	80 93 80 00 	sts	0x0080, r24	; 0x800080 <error>
 4c8:	90 93 81 00 	sts	0x0081, r25	; 0x800081 <error+0x1>
 4cc:	a0 93 82 00 	sts	0x0082, r26	; 0x800082 <error+0x2>
 4d0:	b0 93 83 00 	sts	0x0083, r27	; 0x800083 <error+0x3>
 4d4:	0e 94 5a 01 	call	0x2b4	; 0x2b4 <_Z5rightv>
 4d8:	08 95       	ret
 4da:	c8 9b       	sbis	0x19, 0	; 25
 4dc:	08 c0       	rjmp	.+16     	; 0x4ee <__stack+0x8f>
 4de:	c9 9b       	sbis	0x19, 1	; 25
 4e0:	06 c0       	rjmp	.+12     	; 0x4ee <__stack+0x8f>
 4e2:	ca 9b       	sbis	0x19, 2	; 25
 4e4:	04 c0       	rjmp	.+8      	; 0x4ee <__stack+0x8f>
 4e6:	cb 9b       	sbis	0x19, 3	; 25
 4e8:	02 c0       	rjmp	.+4      	; 0x4ee <__stack+0x8f>
 4ea:	cc 9b       	sbis	0x19, 4	; 25
 4ec:	81 e0       	ldi	r24, 0x01	; 1
 4ee:	88 23       	and	r24, r24
 4f0:	79 f0       	breq	.+30     	; 0x510 <__stack+0xb1>
 4f2:	80 e0       	ldi	r24, 0x00	; 0
 4f4:	90 e0       	ldi	r25, 0x00	; 0
 4f6:	a0 e8       	ldi	r26, 0x80	; 128
 4f8:	b0 e4       	ldi	r27, 0x40	; 64
 4fa:	80 93 80 00 	sts	0x0080, r24	; 0x800080 <error>
 4fe:	90 93 81 00 	sts	0x0081, r25	; 0x800081 <error+0x1>
 502:	a0 93 82 00 	sts	0x0082, r26	; 0x800082 <error+0x2>
 506:	b0 93 83 00 	sts	0x0083, r27	; 0x800083 <error+0x3>
 50a:	0e 94 4d 01 	call	0x29a	; 0x29a <_Z4leftv>
 50e:	08 95       	ret
 510:	c8 99       	sbic	0x19, 0	; 25
 512:	08 c0       	rjmp	.+16     	; 0x524 <__stack+0xc5>
 514:	c9 99       	sbic	0x19, 1	; 25
 516:	06 c0       	rjmp	.+12     	; 0x524 <__stack+0xc5>
 518:	ca 99       	sbic	0x19, 2	; 25
 51a:	04 c0       	rjmp	.+8      	; 0x524 <__stack+0xc5>
 51c:	cb 9b       	sbis	0x19, 3	; 25
 51e:	02 c0       	rjmp	.+4      	; 0x524 <__stack+0xc5>
 520:	cc 99       	sbic	0x19, 4	; 25
 522:	81 e0       	ldi	r24, 0x01	; 1
 524:	88 23       	and	r24, r24
 526:	69 f0       	breq	.+26     	; 0x542 <__stack+0xe3>
 528:	80 e0       	ldi	r24, 0x00	; 0
 52a:	90 e0       	ldi	r25, 0x00	; 0
 52c:	a0 e2       	ldi	r26, 0x20	; 32
 52e:	b1 e4       	ldi	r27, 0x41	; 65
 530:	80 93 80 00 	sts	0x0080, r24	; 0x800080 <error>
 534:	90 93 81 00 	sts	0x0081, r25	; 0x800081 <error+0x1>
 538:	a0 93 82 00 	sts	0x0082, r26	; 0x800082 <error+0x2>
 53c:	b0 93 83 00 	sts	0x0083, r27	; 0x800083 <error+0x3>
 540:	08 95       	ret
 542:	c8 9b       	sbis	0x19, 0	; 25
 544:	08 c0       	rjmp	.+16     	; 0x556 <__stack+0xf7>
 546:	c9 9b       	sbis	0x19, 1	; 25
 548:	06 c0       	rjmp	.+12     	; 0x556 <__stack+0xf7>
 54a:	ca 99       	sbic	0x19, 2	; 25
 54c:	04 c0       	rjmp	.+8      	; 0x556 <__stack+0xf7>
 54e:	cb 99       	sbic	0x19, 3	; 25
 550:	02 c0       	rjmp	.+4      	; 0x556 <__stack+0xf7>
 552:	cc 9b       	sbis	0x19, 4	; 25
 554:	81 e0       	ldi	r24, 0x01	; 1
 556:	88 23       	and	r24, r24
 558:	69 f0       	breq	.+26     	; 0x574 <__stack+0x115>
 55a:	80 e0       	ldi	r24, 0x00	; 0
 55c:	90 e0       	ldi	r25, 0x00	; 0
 55e:	a0 e3       	ldi	r26, 0x30	; 48
 560:	b1 e4       	ldi	r27, 0x41	; 65
 562:	80 93 80 00 	sts	0x0080, r24	; 0x800080 <error>
 566:	90 93 81 00 	sts	0x0081, r25	; 0x800081 <error+0x1>
 56a:	a0 93 82 00 	sts	0x0082, r26	; 0x800082 <error+0x2>
 56e:	b0 93 83 00 	sts	0x0083, r27	; 0x800083 <error+0x3>
 572:	08 95       	ret
 574:	c8 9b       	sbis	0x19, 0	; 25
 576:	08 c0       	rjmp	.+16     	; 0x588 <__stack+0x129>
 578:	c9 9b       	sbis	0x19, 1	; 25
 57a:	06 c0       	rjmp	.+12     	; 0x588 <__stack+0x129>
 57c:	ca 9b       	sbis	0x19, 2	; 25
 57e:	04 c0       	rjmp	.+8      	; 0x588 <__stack+0x129>
 580:	cb 9b       	sbis	0x19, 3	; 25
 582:	02 c0       	rjmp	.+4      	; 0x588 <__stack+0x129>
 584:	cc 99       	sbic	0x19, 4	; 25
 586:	81 e0       	ldi	r24, 0x01	; 1
 588:	88 23       	and	r24, r24
 58a:	69 f0       	breq	.+26     	; 0x5a6 <__stack+0x147>
 58c:	80 e0       	ldi	r24, 0x00	; 0
 58e:	90 e0       	ldi	r25, 0x00	; 0
 590:	a0 e4       	ldi	r26, 0x40	; 64
 592:	b1 e4       	ldi	r27, 0x41	; 65
 594:	80 93 80 00 	sts	0x0080, r24	; 0x800080 <error>
 598:	90 93 81 00 	sts	0x0081, r25	; 0x800081 <error+0x1>
 59c:	a0 93 82 00 	sts	0x0082, r26	; 0x800082 <error+0x2>
 5a0:	b0 93 83 00 	sts	0x0083, r27	; 0x800083 <error+0x3>
 5a4:	08 95       	ret
 5a6:	c8 99       	sbic	0x19, 0	; 25
 5a8:	08 c0       	rjmp	.+16     	; 0x5ba <__stack+0x15b>
 5aa:	c9 99       	sbic	0x19, 1	; 25
 5ac:	06 c0       	rjmp	.+12     	; 0x5ba <__stack+0x15b>
 5ae:	ca 99       	sbic	0x19, 2	; 25
 5b0:	04 c0       	rjmp	.+8      	; 0x5ba <__stack+0x15b>
 5b2:	cb 99       	sbic	0x19, 3	; 25
 5b4:	02 c0       	rjmp	.+4      	; 0x5ba <__stack+0x15b>
 5b6:	cc 9b       	sbis	0x19, 4	; 25
 5b8:	81 e0       	ldi	r24, 0x01	; 1
 5ba:	88 23       	and	r24, r24
 5bc:	61 f0       	breq	.+24     	; 0x5d6 <__stack+0x177>
 5be:	80 e0       	ldi	r24, 0x00	; 0
 5c0:	90 e0       	ldi	r25, 0x00	; 0
 5c2:	a0 e5       	ldi	r26, 0x50	; 80
 5c4:	b1 e4       	ldi	r27, 0x41	; 65
 5c6:	80 93 80 00 	sts	0x0080, r24	; 0x800080 <error>
 5ca:	90 93 81 00 	sts	0x0081, r25	; 0x800081 <error+0x1>
 5ce:	a0 93 82 00 	sts	0x0082, r26	; 0x800082 <error+0x2>
 5d2:	b0 93 83 00 	sts	0x0083, r27	; 0x800083 <error+0x3>
 5d6:	08 95       	ret

000005d8 <_Z3d_bv>:
 5d8:	cf 92       	push	r12
 5da:	df 92       	push	r13
 5dc:	ef 92       	push	r14
 5de:	ff 92       	push	r15
 5e0:	c0 90 80 00 	lds	r12, 0x0080	; 0x800080 <error>
 5e4:	d0 90 81 00 	lds	r13, 0x0081	; 0x800081 <error+0x1>
 5e8:	e0 90 82 00 	lds	r14, 0x0082	; 0x800082 <error+0x2>
 5ec:	f0 90 83 00 	lds	r15, 0x0083	; 0x800083 <error+0x3>
 5f0:	20 e0       	ldi	r18, 0x00	; 0
 5f2:	30 e0       	ldi	r19, 0x00	; 0
 5f4:	40 e2       	ldi	r20, 0x20	; 32
 5f6:	51 e4       	ldi	r21, 0x41	; 65
 5f8:	c7 01       	movw	r24, r14
 5fa:	b6 01       	movw	r22, r12
 5fc:	0e 94 b7 04 	call	0x96e	; 0x96e <__cmpsf2>
 600:	81 11       	cpse	r24, r1
 602:	29 c0       	rjmp	.+82     	; 0x656 <_Z3d_bv+0x7e>
 604:	66 e9       	ldi	r22, 0x96	; 150
 606:	70 e0       	ldi	r23, 0x00	; 0
 608:	80 e0       	ldi	r24, 0x00	; 0
 60a:	90 e0       	ldi	r25, 0x00	; 0
 60c:	0e 94 49 00 	call	0x92	; 0x92 <_Z9set_OCR1Al>
 610:	66 e9       	ldi	r22, 0x96	; 150
 612:	70 e0       	ldi	r23, 0x00	; 0
 614:	80 e0       	ldi	r24, 0x00	; 0
 616:	90 e0       	ldi	r25, 0x00	; 0
 618:	0e 94 67 00 	call	0xce	; 0xce <_Z9set_OCR1Bl>
 61c:	0e 94 74 01 	call	0x2e8	; 0x2e8 <_Z12rorate_rightv>
 620:	0e 94 8e 01 	call	0x31c	; 0x31c <_Z11read_sensorv>
 624:	60 91 80 00 	lds	r22, 0x0080	; 0x800080 <error>
 628:	70 91 81 00 	lds	r23, 0x0081	; 0x800081 <error+0x1>
 62c:	80 91 82 00 	lds	r24, 0x0082	; 0x800082 <error+0x2>
 630:	90 91 83 00 	lds	r25, 0x0083	; 0x800083 <error+0x3>
 634:	20 e0       	ldi	r18, 0x00	; 0
 636:	30 e0       	ldi	r19, 0x00	; 0
 638:	a9 01       	movw	r20, r18
 63a:	0e 94 b7 04 	call	0x96e	; 0x96e <__cmpsf2>
 63e:	88 23       	and	r24, r24
 640:	21 f0       	breq	.+8      	; 0x64a <_Z3d_bv+0x72>
 642:	cd 9b       	sbis	0x19, 5	; 25
 644:	04 c0       	rjmp	.+8      	; 0x64e <_Z3d_bv+0x76>
 646:	80 e0       	ldi	r24, 0x00	; 0
 648:	03 c0       	rjmp	.+6      	; 0x650 <_Z3d_bv+0x78>
 64a:	80 e0       	ldi	r24, 0x00	; 0
 64c:	01 c0       	rjmp	.+2      	; 0x650 <_Z3d_bv+0x78>
 64e:	81 e0       	ldi	r24, 0x01	; 1
 650:	81 11       	cpse	r24, r1
 652:	d8 cf       	rjmp	.-80     	; 0x604 <_Z3d_bv+0x2c>
 654:	b8 c0       	rjmp	.+368    	; 0x7c6 <_Z3d_bv+0x1ee>
 656:	20 e0       	ldi	r18, 0x00	; 0
 658:	30 e0       	ldi	r19, 0x00	; 0
 65a:	40 e3       	ldi	r20, 0x30	; 48
 65c:	51 e4       	ldi	r21, 0x41	; 65
 65e:	c7 01       	movw	r24, r14
 660:	b6 01       	movw	r22, r12
 662:	0e 94 b7 04 	call	0x96e	; 0x96e <__cmpsf2>
 666:	81 11       	cpse	r24, r1
 668:	29 c0       	rjmp	.+82     	; 0x6bc <_Z3d_bv+0xe4>
 66a:	66 e9       	ldi	r22, 0x96	; 150
 66c:	70 e0       	ldi	r23, 0x00	; 0
 66e:	80 e0       	ldi	r24, 0x00	; 0
 670:	90 e0       	ldi	r25, 0x00	; 0
 672:	0e 94 49 00 	call	0x92	; 0x92 <_Z9set_OCR1Al>
 676:	66 e9       	ldi	r22, 0x96	; 150
 678:	70 e0       	ldi	r23, 0x00	; 0
 67a:	80 e0       	ldi	r24, 0x00	; 0
 67c:	90 e0       	ldi	r25, 0x00	; 0
 67e:	0e 94 67 00 	call	0xce	; 0xce <_Z9set_OCR1Bl>
 682:	0e 94 67 01 	call	0x2ce	; 0x2ce <_Z11rorate_leftv>
 686:	0e 94 8e 01 	call	0x31c	; 0x31c <_Z11read_sensorv>
 68a:	60 91 80 00 	lds	r22, 0x0080	; 0x800080 <error>
 68e:	70 91 81 00 	lds	r23, 0x0081	; 0x800081 <error+0x1>
 692:	80 91 82 00 	lds	r24, 0x0082	; 0x800082 <error+0x2>
 696:	90 91 83 00 	lds	r25, 0x0083	; 0x800083 <error+0x3>
 69a:	20 e0       	ldi	r18, 0x00	; 0
 69c:	30 e0       	ldi	r19, 0x00	; 0
 69e:	a9 01       	movw	r20, r18
 6a0:	0e 94 b7 04 	call	0x96e	; 0x96e <__cmpsf2>
 6a4:	88 23       	and	r24, r24
 6a6:	21 f0       	breq	.+8      	; 0x6b0 <_Z3d_bv+0xd8>
 6a8:	cd 9b       	sbis	0x19, 5	; 25
 6aa:	04 c0       	rjmp	.+8      	; 0x6b4 <_Z3d_bv+0xdc>
 6ac:	80 e0       	ldi	r24, 0x00	; 0
 6ae:	03 c0       	rjmp	.+6      	; 0x6b6 <_Z3d_bv+0xde>
 6b0:	80 e0       	ldi	r24, 0x00	; 0
 6b2:	01 c0       	rjmp	.+2      	; 0x6b6 <_Z3d_bv+0xde>
 6b4:	81 e0       	ldi	r24, 0x01	; 1
 6b6:	81 11       	cpse	r24, r1
 6b8:	d8 cf       	rjmp	.-80     	; 0x66a <_Z3d_bv+0x92>
 6ba:	85 c0       	rjmp	.+266    	; 0x7c6 <_Z3d_bv+0x1ee>
 6bc:	20 e0       	ldi	r18, 0x00	; 0
 6be:	30 e0       	ldi	r19, 0x00	; 0
 6c0:	40 e4       	ldi	r20, 0x40	; 64
 6c2:	51 e4       	ldi	r21, 0x41	; 65
 6c4:	c7 01       	movw	r24, r14
 6c6:	b6 01       	movw	r22, r12
 6c8:	0e 94 b7 04 	call	0x96e	; 0x96e <__cmpsf2>
 6cc:	81 11       	cpse	r24, r1
 6ce:	3c c0       	rjmp	.+120    	; 0x748 <_Z3d_bv+0x170>
 6d0:	cd 99       	sbic	0x19, 5	; 25
 6d2:	18 c0       	rjmp	.+48     	; 0x704 <_Z3d_bv+0x12c>
 6d4:	0e 94 40 01 	call	0x280	; 0x280 <_Z7forwardv>
 6d8:	66 e9       	ldi	r22, 0x96	; 150
 6da:	70 e0       	ldi	r23, 0x00	; 0
 6dc:	80 e0       	ldi	r24, 0x00	; 0
 6de:	90 e0       	ldi	r25, 0x00	; 0
 6e0:	0e 94 49 00 	call	0x92	; 0x92 <_Z9set_OCR1Al>
 6e4:	66 e9       	ldi	r22, 0x96	; 150
 6e6:	70 e0       	ldi	r23, 0x00	; 0
 6e8:	80 e0       	ldi	r24, 0x00	; 0
 6ea:	90 e0       	ldi	r25, 0x00	; 0
 6ec:	0e 94 67 00 	call	0xce	; 0xce <_Z9set_OCR1Bl>
 6f0:	2f ef       	ldi	r18, 0xFF	; 255
 6f2:	85 ea       	ldi	r24, 0xA5	; 165
 6f4:	9e e0       	ldi	r25, 0x0E	; 14
 6f6:	21 50       	subi	r18, 0x01	; 1
 6f8:	80 40       	sbci	r24, 0x00	; 0
 6fa:	90 40       	sbci	r25, 0x00	; 0
 6fc:	e1 f7       	brne	.-8      	; 0x6f6 <_Z3d_bv+0x11e>
 6fe:	00 c0       	rjmp	.+0      	; 0x700 <_Z3d_bv+0x128>
 700:	00 00       	nop
 702:	61 c0       	rjmp	.+194    	; 0x7c6 <_Z3d_bv+0x1ee>
 704:	cd 9b       	sbis	0x19, 5	; 25
 706:	5f c0       	rjmp	.+190    	; 0x7c6 <_Z3d_bv+0x1ee>
 708:	66 e9       	ldi	r22, 0x96	; 150
 70a:	70 e0       	ldi	r23, 0x00	; 0
 70c:	80 e0       	ldi	r24, 0x00	; 0
 70e:	90 e0       	ldi	r25, 0x00	; 0
 710:	0e 94 49 00 	call	0x92	; 0x92 <_Z9set_OCR1Al>
 714:	66 e9       	ldi	r22, 0x96	; 150
 716:	70 e0       	ldi	r23, 0x00	; 0
 718:	80 e0       	ldi	r24, 0x00	; 0
 71a:	90 e0       	ldi	r25, 0x00	; 0
 71c:	0e 94 67 00 	call	0xce	; 0xce <_Z9set_OCR1Bl>
 720:	0e 94 67 01 	call	0x2ce	; 0x2ce <_Z11rorate_leftv>
 724:	0e 94 8e 01 	call	0x31c	; 0x31c <_Z11read_sensorv>
 728:	20 e0       	ldi	r18, 0x00	; 0
 72a:	30 e0       	ldi	r19, 0x00	; 0
 72c:	a9 01       	movw	r20, r18
 72e:	60 91 80 00 	lds	r22, 0x0080	; 0x800080 <error>
 732:	70 91 81 00 	lds	r23, 0x0081	; 0x800081 <error+0x1>
 736:	80 91 82 00 	lds	r24, 0x0082	; 0x800082 <error+0x2>
 73a:	90 91 83 00 	lds	r25, 0x0083	; 0x800083 <error+0x3>
 73e:	0e 94 b7 04 	call	0x96e	; 0x96e <__cmpsf2>
 742:	81 11       	cpse	r24, r1
 744:	e1 cf       	rjmp	.-62     	; 0x708 <_Z3d_bv+0x130>
 746:	3f c0       	rjmp	.+126    	; 0x7c6 <_Z3d_bv+0x1ee>
 748:	20 e0       	ldi	r18, 0x00	; 0
 74a:	30 e0       	ldi	r19, 0x00	; 0
 74c:	40 e5       	ldi	r20, 0x50	; 80
 74e:	51 e4       	ldi	r21, 0x41	; 65
 750:	c7 01       	movw	r24, r14
 752:	b6 01       	movw	r22, r12
 754:	0e 94 b7 04 	call	0x96e	; 0x96e <__cmpsf2>
 758:	81 11       	cpse	r24, r1
 75a:	35 c0       	rjmp	.+106    	; 0x7c6 <_Z3d_bv+0x1ee>
 75c:	cd 99       	sbic	0x19, 5	; 25
 75e:	33 c0       	rjmp	.+102    	; 0x7c6 <_Z3d_bv+0x1ee>
 760:	0e 94 40 01 	call	0x280	; 0x280 <_Z7forwardv>
 764:	66 e9       	ldi	r22, 0x96	; 150
 766:	70 e0       	ldi	r23, 0x00	; 0
 768:	80 e0       	ldi	r24, 0x00	; 0
 76a:	90 e0       	ldi	r25, 0x00	; 0
 76c:	0e 94 49 00 	call	0x92	; 0x92 <_Z9set_OCR1Al>
 770:	66 e9       	ldi	r22, 0x96	; 150
 772:	70 e0       	ldi	r23, 0x00	; 0
 774:	80 e0       	ldi	r24, 0x00	; 0
 776:	90 e0       	ldi	r25, 0x00	; 0
 778:	0e 94 67 00 	call	0xce	; 0xce <_Z9set_OCR1Bl>
 77c:	2f ef       	ldi	r18, 0xFF	; 255
 77e:	84 e3       	ldi	r24, 0x34	; 52
 780:	9c e0       	ldi	r25, 0x0C	; 12
 782:	21 50       	subi	r18, 0x01	; 1
 784:	80 40       	sbci	r24, 0x00	; 0
 786:	90 40       	sbci	r25, 0x00	; 0
 788:	e1 f7       	brne	.-8      	; 0x782 <_Z3d_bv+0x1aa>
 78a:	00 c0       	rjmp	.+0      	; 0x78c <_Z3d_bv+0x1b4>
 78c:	00 00       	nop
 78e:	c8 99       	sbic	0x19, 0	; 25
 790:	0c c0       	rjmp	.+24     	; 0x7aa <_Z3d_bv+0x1d2>
 792:	c9 99       	sbic	0x19, 1	; 25
 794:	0c c0       	rjmp	.+24     	; 0x7ae <_Z3d_bv+0x1d6>
 796:	ca 99       	sbic	0x19, 2	; 25
 798:	0c c0       	rjmp	.+24     	; 0x7b2 <_Z3d_bv+0x1da>
 79a:	cb 99       	sbic	0x19, 3	; 25
 79c:	0c c0       	rjmp	.+24     	; 0x7b6 <_Z3d_bv+0x1de>
 79e:	cc 99       	sbic	0x19, 4	; 25
 7a0:	0c c0       	rjmp	.+24     	; 0x7ba <_Z3d_bv+0x1e2>
 7a2:	cd 9b       	sbis	0x19, 5	; 25
 7a4:	0c c0       	rjmp	.+24     	; 0x7be <_Z3d_bv+0x1e6>
 7a6:	80 e0       	ldi	r24, 0x00	; 0
 7a8:	0b c0       	rjmp	.+22     	; 0x7c0 <_Z3d_bv+0x1e8>
 7aa:	80 e0       	ldi	r24, 0x00	; 0
 7ac:	09 c0       	rjmp	.+18     	; 0x7c0 <_Z3d_bv+0x1e8>
 7ae:	80 e0       	ldi	r24, 0x00	; 0
 7b0:	07 c0       	rjmp	.+14     	; 0x7c0 <_Z3d_bv+0x1e8>
 7b2:	80 e0       	ldi	r24, 0x00	; 0
 7b4:	05 c0       	rjmp	.+10     	; 0x7c0 <_Z3d_bv+0x1e8>
 7b6:	80 e0       	ldi	r24, 0x00	; 0
 7b8:	03 c0       	rjmp	.+6      	; 0x7c0 <_Z3d_bv+0x1e8>
 7ba:	80 e0       	ldi	r24, 0x00	; 0
 7bc:	01 c0       	rjmp	.+2      	; 0x7c0 <_Z3d_bv+0x1e8>
 7be:	81 e0       	ldi	r24, 0x01	; 1
 7c0:	81 11       	cpse	r24, r1
 7c2:	0e 94 81 01 	call	0x302	; 0x302 <_Z4stopv>
 7c6:	ff 90       	pop	r15
 7c8:	ef 90       	pop	r14
 7ca:	df 90       	pop	r13
 7cc:	cf 90       	pop	r12
 7ce:	08 95       	ret

000007d0 <__vector_1>:
 7d0:	1f 92       	push	r1
 7d2:	0f 92       	push	r0
 7d4:	0f b6       	in	r0, 0x3f	; 63
 7d6:	0f 92       	push	r0
 7d8:	11 24       	eor	r1, r1
 7da:	8f 93       	push	r24
 7dc:	80 91 88 00 	lds	r24, 0x0088	; 0x800088 <k>
 7e0:	8f 5f       	subi	r24, 0xFF	; 255
 7e2:	80 93 88 00 	sts	0x0088, r24	; 0x800088 <k>
 7e6:	83 30       	cpi	r24, 0x03	; 3
 7e8:	11 f4       	brne	.+4      	; 0x7ee <__vector_1+0x1e>
 7ea:	10 92 88 00 	sts	0x0088, r1	; 0x800088 <k>
 7ee:	8f 91       	pop	r24
 7f0:	0f 90       	pop	r0
 7f2:	0f be       	out	0x3f, r0	; 63
 7f4:	0f 90       	pop	r0
 7f6:	1f 90       	pop	r1
 7f8:	18 95       	reti

000007fa <main>:
}
int main(void)
{	k=0;
 7fa:	10 92 88 00 	sts	0x0088, r1	; 0x800088 <k>
	DDRA=0x00;// connect to sensor
 7fe:	1a ba       	out	0x1a, r1	; 26
	//PORTA=0xFF;
	DDRB=0xFF; // connect to motor
 800:	8f ef       	ldi	r24, 0xFF	; 255
 802:	87 bb       	out	0x17, r24	; 23
	PORTB=0x00;
 804:	18 ba       	out	0x18, r1	; 24
	DDRD=0xFF;
 806:	81 bb       	out	0x11, r24	; 17
	cbi(DDRD,2);// set chan ngat ngoai
 808:	81 b3       	in	r24, 0x11	; 17
 80a:	8b 7f       	andi	r24, 0xFB	; 251
 80c:	81 bb       	out	0x11, r24	; 17
	sbi(PORTD,2);
 80e:	82 b3       	in	r24, 0x12	; 18
 810:	84 60       	ori	r24, 0x04	; 4
 812:	82 bb       	out	0x12, r24	; 18
	cbi(DDRB,4);// set chan mode dieu chinh
 814:	87 b3       	in	r24, 0x17	; 23
 816:	8f 7e       	andi	r24, 0xEF	; 239
 818:	87 bb       	out	0x17, r24	; 23
	sbi(PORTB,4);
 81a:	88 b3       	in	r24, 0x18	; 24
 81c:	80 61       	ori	r24, 0x10	; 16
 81e:	88 bb       	out	0x18, r24	; 24

	char tem1[20];
    /* TIMER PWM MODE */
	TCCR1A=(1<<COM1A1) | (1<<COM1B1) | (1<<WGM11);    //chon mode top la ICR1
 820:	82 ea       	ldi	r24, 0xA2	; 162
 822:	8f bd       	out	0x2f, r24	; 47
	TCCR1B=(1<<WGM13) | (1<<WGM12) | (1<<CS11) ;       // bo chia 8  non inverting mode
 824:	8a e1       	ldi	r24, 0x1A	; 26
 826:	8e bd       	out	0x2e, r24	; 46
	ICR1H=0x4E; // 1 chu ki xung la 20 ms <=> 20000=0x4E20
 828:	8e e4       	ldi	r24, 0x4E	; 78
 82a:	87 bd       	out	0x27, r24	; 39
	ICR1L=0x20;     // tong o ICRH va ICRL la 20000
 82c:	80 e2       	ldi	r24, 0x20	; 32
 82e:	86 bd       	out	0x26, r24	; 38
	 /* UART MODE */
	/*UBRRL=51;
	UCSRC=(1<<URSEL)|(1<<UCSZ1)|(1<<UCSZ0); // chon mode su dung UBRRH, chon gui 8 bit du lieu
	UCSRB=(1<<RXEN)|(1<<TXEN)|(1<<RXCIE);// cho phep nhan , gui, ngat*/
	// INT0: On    Low level
	GICR|=(1<<INT0); // bat int
 830:	8b b7       	in	r24, 0x3b	; 59
 832:	80 64       	ori	r24, 0x40	; 64
 834:	8b bf       	out	0x3b, r24	; 59
	MCUCR|=(1<<ISC10);  // che do hoat dong int0
 836:	85 b7       	in	r24, 0x35	; 53
 838:	84 60       	ori	r24, 0x04	; 4
 83a:	85 bf       	out	0x35, r24	; 53
	sei();
 83c:	78 94       	sei
				
		}
		else if(k==2){ // dieu chinh thong so
			dieu_chinh();
		}*/
		read_sensor();
 83e:	0e 94 8e 01 	call	0x31c	; 0x31c <_Z11read_sensorv>
		caculate_PID();
 842:	0e 94 85 00 	call	0x10a	; 0x10a <_Z12caculate_PIDv>
		d_b();
 846:	0e 94 ec 02 	call	0x5d8	; 0x5d8 <_Z3d_bv>
		set_OCR1B(110-PID_value);// so ma thang line chay
 84a:	20 91 70 00 	lds	r18, 0x0070	; 0x800070 <PID_value>
 84e:	30 91 71 00 	lds	r19, 0x0071	; 0x800071 <PID_value+0x1>
 852:	40 91 72 00 	lds	r20, 0x0072	; 0x800072 <PID_value+0x2>
 856:	50 91 73 00 	lds	r21, 0x0073	; 0x800073 <PID_value+0x3>
 85a:	60 e0       	ldi	r22, 0x00	; 0
 85c:	70 e0       	ldi	r23, 0x00	; 0
 85e:	8c ed       	ldi	r24, 0xDC	; 220
 860:	92 e4       	ldi	r25, 0x42	; 66
 862:	0e 94 4a 04 	call	0x894	; 0x894 <__subsf3>
 866:	0e 94 bc 04 	call	0x978	; 0x978 <__fixsfsi>
 86a:	0e 94 67 00 	call	0xce	; 0xce <_Z9set_OCR1Bl>
		set_OCR1A(110+PID_value);
 86e:	20 e0       	ldi	r18, 0x00	; 0
 870:	30 e0       	ldi	r19, 0x00	; 0
 872:	4c ed       	ldi	r20, 0xDC	; 220
 874:	52 e4       	ldi	r21, 0x42	; 66
 876:	60 91 70 00 	lds	r22, 0x0070	; 0x800070 <PID_value>
 87a:	70 91 71 00 	lds	r23, 0x0071	; 0x800071 <PID_value+0x1>
 87e:	80 91 72 00 	lds	r24, 0x0072	; 0x800072 <PID_value+0x2>
 882:	90 91 73 00 	lds	r25, 0x0073	; 0x800073 <PID_value+0x3>
 886:	0e 94 4b 04 	call	0x896	; 0x896 <__addsf3>
 88a:	0e 94 bc 04 	call	0x978	; 0x978 <__fixsfsi>
 88e:	0e 94 49 00 	call	0x92	; 0x92 <_Z9set_OCR1Al>
 892:	d5 cf       	rjmp	.-86     	; 0x83e <main+0x44>

00000894 <__subsf3>:
 894:	50 58       	subi	r21, 0x80	; 128

00000896 <__addsf3>:
 896:	bb 27       	eor	r27, r27
 898:	aa 27       	eor	r26, r26
 89a:	0e 94 62 04 	call	0x8c4	; 0x8c4 <__addsf3x>
 89e:	0c 94 2d 05 	jmp	0xa5a	; 0xa5a <__fp_round>
 8a2:	0e 94 1f 05 	call	0xa3e	; 0xa3e <__fp_pscA>
 8a6:	38 f0       	brcs	.+14     	; 0x8b6 <__addsf3+0x20>
 8a8:	0e 94 26 05 	call	0xa4c	; 0xa4c <__fp_pscB>
 8ac:	20 f0       	brcs	.+8      	; 0x8b6 <__addsf3+0x20>
 8ae:	39 f4       	brne	.+14     	; 0x8be <__addsf3+0x28>
 8b0:	9f 3f       	cpi	r25, 0xFF	; 255
 8b2:	19 f4       	brne	.+6      	; 0x8ba <__addsf3+0x24>
 8b4:	26 f4       	brtc	.+8      	; 0x8be <__addsf3+0x28>
 8b6:	0c 94 1c 05 	jmp	0xa38	; 0xa38 <__fp_nan>
 8ba:	0e f4       	brtc	.+2      	; 0x8be <__addsf3+0x28>
 8bc:	e0 95       	com	r30
 8be:	e7 fb       	bst	r30, 7
 8c0:	0c 94 16 05 	jmp	0xa2c	; 0xa2c <__fp_inf>

000008c4 <__addsf3x>:
 8c4:	e9 2f       	mov	r30, r25
 8c6:	0e 94 3e 05 	call	0xa7c	; 0xa7c <__fp_split3>
 8ca:	58 f3       	brcs	.-42     	; 0x8a2 <__addsf3+0xc>
 8cc:	ba 17       	cp	r27, r26
 8ce:	62 07       	cpc	r22, r18
 8d0:	73 07       	cpc	r23, r19
 8d2:	84 07       	cpc	r24, r20
 8d4:	95 07       	cpc	r25, r21
 8d6:	20 f0       	brcs	.+8      	; 0x8e0 <__addsf3x+0x1c>
 8d8:	79 f4       	brne	.+30     	; 0x8f8 <__addsf3x+0x34>
 8da:	a6 f5       	brtc	.+104    	; 0x944 <__addsf3x+0x80>
 8dc:	0c 94 60 05 	jmp	0xac0	; 0xac0 <__fp_zero>
 8e0:	0e f4       	brtc	.+2      	; 0x8e4 <__addsf3x+0x20>
 8e2:	e0 95       	com	r30
 8e4:	0b 2e       	mov	r0, r27
 8e6:	ba 2f       	mov	r27, r26
 8e8:	a0 2d       	mov	r26, r0
 8ea:	0b 01       	movw	r0, r22
 8ec:	b9 01       	movw	r22, r18
 8ee:	90 01       	movw	r18, r0
 8f0:	0c 01       	movw	r0, r24
 8f2:	ca 01       	movw	r24, r20
 8f4:	a0 01       	movw	r20, r0
 8f6:	11 24       	eor	r1, r1
 8f8:	ff 27       	eor	r31, r31
 8fa:	59 1b       	sub	r21, r25
 8fc:	99 f0       	breq	.+38     	; 0x924 <__addsf3x+0x60>
 8fe:	59 3f       	cpi	r21, 0xF9	; 249
 900:	50 f4       	brcc	.+20     	; 0x916 <__addsf3x+0x52>
 902:	50 3e       	cpi	r21, 0xE0	; 224
 904:	68 f1       	brcs	.+90     	; 0x960 <__addsf3x+0x9c>
 906:	1a 16       	cp	r1, r26
 908:	f0 40       	sbci	r31, 0x00	; 0
 90a:	a2 2f       	mov	r26, r18
 90c:	23 2f       	mov	r18, r19
 90e:	34 2f       	mov	r19, r20
 910:	44 27       	eor	r20, r20
 912:	58 5f       	subi	r21, 0xF8	; 248
 914:	f3 cf       	rjmp	.-26     	; 0x8fc <__addsf3x+0x38>
 916:	46 95       	lsr	r20
 918:	37 95       	ror	r19
 91a:	27 95       	ror	r18
 91c:	a7 95       	ror	r26
 91e:	f0 40       	sbci	r31, 0x00	; 0
 920:	53 95       	inc	r21
 922:	c9 f7       	brne	.-14     	; 0x916 <__addsf3x+0x52>
 924:	7e f4       	brtc	.+30     	; 0x944 <__addsf3x+0x80>
 926:	1f 16       	cp	r1, r31
 928:	ba 0b       	sbc	r27, r26
 92a:	62 0b       	sbc	r22, r18
 92c:	73 0b       	sbc	r23, r19
 92e:	84 0b       	sbc	r24, r20
 930:	ba f0       	brmi	.+46     	; 0x960 <__addsf3x+0x9c>
 932:	91 50       	subi	r25, 0x01	; 1
 934:	a1 f0       	breq	.+40     	; 0x95e <__addsf3x+0x9a>
 936:	ff 0f       	add	r31, r31
 938:	bb 1f       	adc	r27, r27
 93a:	66 1f       	adc	r22, r22
 93c:	77 1f       	adc	r23, r23
 93e:	88 1f       	adc	r24, r24
 940:	c2 f7       	brpl	.-16     	; 0x932 <__addsf3x+0x6e>
 942:	0e c0       	rjmp	.+28     	; 0x960 <__addsf3x+0x9c>
 944:	ba 0f       	add	r27, r26
 946:	62 1f       	adc	r22, r18
 948:	73 1f       	adc	r23, r19
 94a:	84 1f       	adc	r24, r20
 94c:	48 f4       	brcc	.+18     	; 0x960 <__addsf3x+0x9c>
 94e:	87 95       	ror	r24
 950:	77 95       	ror	r23
 952:	67 95       	ror	r22
 954:	b7 95       	ror	r27
 956:	f7 95       	ror	r31
 958:	9e 3f       	cpi	r25, 0xFE	; 254
 95a:	08 f0       	brcs	.+2      	; 0x95e <__addsf3x+0x9a>
 95c:	b0 cf       	rjmp	.-160    	; 0x8be <__addsf3+0x28>
 95e:	93 95       	inc	r25
 960:	88 0f       	add	r24, r24
 962:	08 f0       	brcs	.+2      	; 0x966 <__addsf3x+0xa2>
 964:	99 27       	eor	r25, r25
 966:	ee 0f       	add	r30, r30
 968:	97 95       	ror	r25
 96a:	87 95       	ror	r24
 96c:	08 95       	ret

0000096e <__cmpsf2>:
 96e:	0e 94 f2 04 	call	0x9e4	; 0x9e4 <__fp_cmp>
 972:	08 f4       	brcc	.+2      	; 0x976 <__cmpsf2+0x8>
 974:	81 e0       	ldi	r24, 0x01	; 1
 976:	08 95       	ret

00000978 <__fixsfsi>:
 978:	0e 94 c3 04 	call	0x986	; 0x986 <__fixunssfsi>
 97c:	68 94       	set
 97e:	b1 11       	cpse	r27, r1
 980:	0c 94 61 05 	jmp	0xac2	; 0xac2 <__fp_szero>
 984:	08 95       	ret

00000986 <__fixunssfsi>:
 986:	0e 94 46 05 	call	0xa8c	; 0xa8c <__fp_splitA>
 98a:	88 f0       	brcs	.+34     	; 0x9ae <__fixunssfsi+0x28>
 98c:	9f 57       	subi	r25, 0x7F	; 127
 98e:	98 f0       	brcs	.+38     	; 0x9b6 <__fixunssfsi+0x30>
 990:	b9 2f       	mov	r27, r25
 992:	99 27       	eor	r25, r25
 994:	b7 51       	subi	r27, 0x17	; 23
 996:	b0 f0       	brcs	.+44     	; 0x9c4 <__fixunssfsi+0x3e>
 998:	e1 f0       	breq	.+56     	; 0x9d2 <__fixunssfsi+0x4c>
 99a:	66 0f       	add	r22, r22
 99c:	77 1f       	adc	r23, r23
 99e:	88 1f       	adc	r24, r24
 9a0:	99 1f       	adc	r25, r25
 9a2:	1a f0       	brmi	.+6      	; 0x9aa <__fixunssfsi+0x24>
 9a4:	ba 95       	dec	r27
 9a6:	c9 f7       	brne	.-14     	; 0x99a <__fixunssfsi+0x14>
 9a8:	14 c0       	rjmp	.+40     	; 0x9d2 <__fixunssfsi+0x4c>
 9aa:	b1 30       	cpi	r27, 0x01	; 1
 9ac:	91 f0       	breq	.+36     	; 0x9d2 <__fixunssfsi+0x4c>
 9ae:	0e 94 60 05 	call	0xac0	; 0xac0 <__fp_zero>
 9b2:	b1 e0       	ldi	r27, 0x01	; 1
 9b4:	08 95       	ret
 9b6:	0c 94 60 05 	jmp	0xac0	; 0xac0 <__fp_zero>
 9ba:	67 2f       	mov	r22, r23
 9bc:	78 2f       	mov	r23, r24
 9be:	88 27       	eor	r24, r24
 9c0:	b8 5f       	subi	r27, 0xF8	; 248
 9c2:	39 f0       	breq	.+14     	; 0x9d2 <__fixunssfsi+0x4c>
 9c4:	b9 3f       	cpi	r27, 0xF9	; 249
 9c6:	cc f3       	brlt	.-14     	; 0x9ba <__fixunssfsi+0x34>
 9c8:	86 95       	lsr	r24
 9ca:	77 95       	ror	r23
 9cc:	67 95       	ror	r22
 9ce:	b3 95       	inc	r27
 9d0:	d9 f7       	brne	.-10     	; 0x9c8 <__fixunssfsi+0x42>
 9d2:	3e f4       	brtc	.+14     	; 0x9e2 <__fixunssfsi+0x5c>
 9d4:	90 95       	com	r25
 9d6:	80 95       	com	r24
 9d8:	70 95       	com	r23
 9da:	61 95       	neg	r22
 9dc:	7f 4f       	sbci	r23, 0xFF	; 255
 9de:	8f 4f       	sbci	r24, 0xFF	; 255
 9e0:	9f 4f       	sbci	r25, 0xFF	; 255
 9e2:	08 95       	ret

000009e4 <__fp_cmp>:
 9e4:	99 0f       	add	r25, r25
 9e6:	00 08       	sbc	r0, r0
 9e8:	55 0f       	add	r21, r21
 9ea:	aa 0b       	sbc	r26, r26
 9ec:	e0 e8       	ldi	r30, 0x80	; 128
 9ee:	fe ef       	ldi	r31, 0xFE	; 254
 9f0:	16 16       	cp	r1, r22
 9f2:	17 06       	cpc	r1, r23
 9f4:	e8 07       	cpc	r30, r24
 9f6:	f9 07       	cpc	r31, r25
 9f8:	c0 f0       	brcs	.+48     	; 0xa2a <__fp_cmp+0x46>
 9fa:	12 16       	cp	r1, r18
 9fc:	13 06       	cpc	r1, r19
 9fe:	e4 07       	cpc	r30, r20
 a00:	f5 07       	cpc	r31, r21
 a02:	98 f0       	brcs	.+38     	; 0xa2a <__fp_cmp+0x46>
 a04:	62 1b       	sub	r22, r18
 a06:	73 0b       	sbc	r23, r19
 a08:	84 0b       	sbc	r24, r20
 a0a:	95 0b       	sbc	r25, r21
 a0c:	39 f4       	brne	.+14     	; 0xa1c <__fp_cmp+0x38>
 a0e:	0a 26       	eor	r0, r26
 a10:	61 f0       	breq	.+24     	; 0xa2a <__fp_cmp+0x46>
 a12:	23 2b       	or	r18, r19
 a14:	24 2b       	or	r18, r20
 a16:	25 2b       	or	r18, r21
 a18:	21 f4       	brne	.+8      	; 0xa22 <__fp_cmp+0x3e>
 a1a:	08 95       	ret
 a1c:	0a 26       	eor	r0, r26
 a1e:	09 f4       	brne	.+2      	; 0xa22 <__fp_cmp+0x3e>
 a20:	a1 40       	sbci	r26, 0x01	; 1
 a22:	a6 95       	lsr	r26
 a24:	8f ef       	ldi	r24, 0xFF	; 255
 a26:	81 1d       	adc	r24, r1
 a28:	81 1d       	adc	r24, r1
 a2a:	08 95       	ret

00000a2c <__fp_inf>:
 a2c:	97 f9       	bld	r25, 7
 a2e:	9f 67       	ori	r25, 0x7F	; 127
 a30:	80 e8       	ldi	r24, 0x80	; 128
 a32:	70 e0       	ldi	r23, 0x00	; 0
 a34:	60 e0       	ldi	r22, 0x00	; 0
 a36:	08 95       	ret

00000a38 <__fp_nan>:
 a38:	9f ef       	ldi	r25, 0xFF	; 255
 a3a:	80 ec       	ldi	r24, 0xC0	; 192
 a3c:	08 95       	ret

00000a3e <__fp_pscA>:
 a3e:	00 24       	eor	r0, r0
 a40:	0a 94       	dec	r0
 a42:	16 16       	cp	r1, r22
 a44:	17 06       	cpc	r1, r23
 a46:	18 06       	cpc	r1, r24
 a48:	09 06       	cpc	r0, r25
 a4a:	08 95       	ret

00000a4c <__fp_pscB>:
 a4c:	00 24       	eor	r0, r0
 a4e:	0a 94       	dec	r0
 a50:	12 16       	cp	r1, r18
 a52:	13 06       	cpc	r1, r19
 a54:	14 06       	cpc	r1, r20
 a56:	05 06       	cpc	r0, r21
 a58:	08 95       	ret

00000a5a <__fp_round>:
 a5a:	09 2e       	mov	r0, r25
 a5c:	03 94       	inc	r0
 a5e:	00 0c       	add	r0, r0
 a60:	11 f4       	brne	.+4      	; 0xa66 <__fp_round+0xc>
 a62:	88 23       	and	r24, r24
 a64:	52 f0       	brmi	.+20     	; 0xa7a <__fp_round+0x20>
 a66:	bb 0f       	add	r27, r27
 a68:	40 f4       	brcc	.+16     	; 0xa7a <__fp_round+0x20>
 a6a:	bf 2b       	or	r27, r31
 a6c:	11 f4       	brne	.+4      	; 0xa72 <__fp_round+0x18>
 a6e:	60 ff       	sbrs	r22, 0
 a70:	04 c0       	rjmp	.+8      	; 0xa7a <__fp_round+0x20>
 a72:	6f 5f       	subi	r22, 0xFF	; 255
 a74:	7f 4f       	sbci	r23, 0xFF	; 255
 a76:	8f 4f       	sbci	r24, 0xFF	; 255
 a78:	9f 4f       	sbci	r25, 0xFF	; 255
 a7a:	08 95       	ret

00000a7c <__fp_split3>:
 a7c:	57 fd       	sbrc	r21, 7
 a7e:	90 58       	subi	r25, 0x80	; 128
 a80:	44 0f       	add	r20, r20
 a82:	55 1f       	adc	r21, r21
 a84:	59 f0       	breq	.+22     	; 0xa9c <__fp_splitA+0x10>
 a86:	5f 3f       	cpi	r21, 0xFF	; 255
 a88:	71 f0       	breq	.+28     	; 0xaa6 <__fp_splitA+0x1a>
 a8a:	47 95       	ror	r20

00000a8c <__fp_splitA>:
 a8c:	88 0f       	add	r24, r24
 a8e:	97 fb       	bst	r25, 7
 a90:	99 1f       	adc	r25, r25
 a92:	61 f0       	breq	.+24     	; 0xaac <__fp_splitA+0x20>
 a94:	9f 3f       	cpi	r25, 0xFF	; 255
 a96:	79 f0       	breq	.+30     	; 0xab6 <__fp_splitA+0x2a>
 a98:	87 95       	ror	r24
 a9a:	08 95       	ret
 a9c:	12 16       	cp	r1, r18
 a9e:	13 06       	cpc	r1, r19
 aa0:	14 06       	cpc	r1, r20
 aa2:	55 1f       	adc	r21, r21
 aa4:	f2 cf       	rjmp	.-28     	; 0xa8a <__fp_split3+0xe>
 aa6:	46 95       	lsr	r20
 aa8:	f1 df       	rcall	.-30     	; 0xa8c <__fp_splitA>
 aaa:	08 c0       	rjmp	.+16     	; 0xabc <__fp_splitA+0x30>
 aac:	16 16       	cp	r1, r22
 aae:	17 06       	cpc	r1, r23
 ab0:	18 06       	cpc	r1, r24
 ab2:	99 1f       	adc	r25, r25
 ab4:	f1 cf       	rjmp	.-30     	; 0xa98 <__fp_splitA+0xc>
 ab6:	86 95       	lsr	r24
 ab8:	71 05       	cpc	r23, r1
 aba:	61 05       	cpc	r22, r1
 abc:	08 94       	sec
 abe:	08 95       	ret

00000ac0 <__fp_zero>:
 ac0:	e8 94       	clt

00000ac2 <__fp_szero>:
 ac2:	bb 27       	eor	r27, r27
 ac4:	66 27       	eor	r22, r22
 ac6:	77 27       	eor	r23, r23
 ac8:	cb 01       	movw	r24, r22
 aca:	97 f9       	bld	r25, 7
 acc:	08 95       	ret

00000ace <__mulsf3>:
 ace:	0e 94 7a 05 	call	0xaf4	; 0xaf4 <__mulsf3x>
 ad2:	0c 94 2d 05 	jmp	0xa5a	; 0xa5a <__fp_round>
 ad6:	0e 94 1f 05 	call	0xa3e	; 0xa3e <__fp_pscA>
 ada:	38 f0       	brcs	.+14     	; 0xaea <__mulsf3+0x1c>
 adc:	0e 94 26 05 	call	0xa4c	; 0xa4c <__fp_pscB>
 ae0:	20 f0       	brcs	.+8      	; 0xaea <__mulsf3+0x1c>
 ae2:	95 23       	and	r25, r21
 ae4:	11 f0       	breq	.+4      	; 0xaea <__mulsf3+0x1c>
 ae6:	0c 94 16 05 	jmp	0xa2c	; 0xa2c <__fp_inf>
 aea:	0c 94 1c 05 	jmp	0xa38	; 0xa38 <__fp_nan>
 aee:	11 24       	eor	r1, r1
 af0:	0c 94 61 05 	jmp	0xac2	; 0xac2 <__fp_szero>

00000af4 <__mulsf3x>:
 af4:	0e 94 3e 05 	call	0xa7c	; 0xa7c <__fp_split3>
 af8:	70 f3       	brcs	.-36     	; 0xad6 <__mulsf3+0x8>

00000afa <__mulsf3_pse>:
 afa:	95 9f       	mul	r25, r21
 afc:	c1 f3       	breq	.-16     	; 0xaee <__mulsf3+0x20>
 afe:	95 0f       	add	r25, r21
 b00:	50 e0       	ldi	r21, 0x00	; 0
 b02:	55 1f       	adc	r21, r21
 b04:	62 9f       	mul	r22, r18
 b06:	f0 01       	movw	r30, r0
 b08:	72 9f       	mul	r23, r18
 b0a:	bb 27       	eor	r27, r27
 b0c:	f0 0d       	add	r31, r0
 b0e:	b1 1d       	adc	r27, r1
 b10:	63 9f       	mul	r22, r19
 b12:	aa 27       	eor	r26, r26
 b14:	f0 0d       	add	r31, r0
 b16:	b1 1d       	adc	r27, r1
 b18:	aa 1f       	adc	r26, r26
 b1a:	64 9f       	mul	r22, r20
 b1c:	66 27       	eor	r22, r22
 b1e:	b0 0d       	add	r27, r0
 b20:	a1 1d       	adc	r26, r1
 b22:	66 1f       	adc	r22, r22
 b24:	82 9f       	mul	r24, r18
 b26:	22 27       	eor	r18, r18
 b28:	b0 0d       	add	r27, r0
 b2a:	a1 1d       	adc	r26, r1
 b2c:	62 1f       	adc	r22, r18
 b2e:	73 9f       	mul	r23, r19
 b30:	b0 0d       	add	r27, r0
 b32:	a1 1d       	adc	r26, r1
 b34:	62 1f       	adc	r22, r18
 b36:	83 9f       	mul	r24, r19
 b38:	a0 0d       	add	r26, r0
 b3a:	61 1d       	adc	r22, r1
 b3c:	22 1f       	adc	r18, r18
 b3e:	74 9f       	mul	r23, r20
 b40:	33 27       	eor	r19, r19
 b42:	a0 0d       	add	r26, r0
 b44:	61 1d       	adc	r22, r1
 b46:	23 1f       	adc	r18, r19
 b48:	84 9f       	mul	r24, r20
 b4a:	60 0d       	add	r22, r0
 b4c:	21 1d       	adc	r18, r1
 b4e:	82 2f       	mov	r24, r18
 b50:	76 2f       	mov	r23, r22
 b52:	6a 2f       	mov	r22, r26
 b54:	11 24       	eor	r1, r1
 b56:	9f 57       	subi	r25, 0x7F	; 127
 b58:	50 40       	sbci	r21, 0x00	; 0
 b5a:	9a f0       	brmi	.+38     	; 0xb82 <__mulsf3_pse+0x88>
 b5c:	f1 f0       	breq	.+60     	; 0xb9a <__mulsf3_pse+0xa0>
 b5e:	88 23       	and	r24, r24
 b60:	4a f0       	brmi	.+18     	; 0xb74 <__mulsf3_pse+0x7a>
 b62:	ee 0f       	add	r30, r30
 b64:	ff 1f       	adc	r31, r31
 b66:	bb 1f       	adc	r27, r27
 b68:	66 1f       	adc	r22, r22
 b6a:	77 1f       	adc	r23, r23
 b6c:	88 1f       	adc	r24, r24
 b6e:	91 50       	subi	r25, 0x01	; 1
 b70:	50 40       	sbci	r21, 0x00	; 0
 b72:	a9 f7       	brne	.-22     	; 0xb5e <__mulsf3_pse+0x64>
 b74:	9e 3f       	cpi	r25, 0xFE	; 254
 b76:	51 05       	cpc	r21, r1
 b78:	80 f0       	brcs	.+32     	; 0xb9a <__mulsf3_pse+0xa0>
 b7a:	0c 94 16 05 	jmp	0xa2c	; 0xa2c <__fp_inf>
 b7e:	0c 94 61 05 	jmp	0xac2	; 0xac2 <__fp_szero>
 b82:	5f 3f       	cpi	r21, 0xFF	; 255
 b84:	e4 f3       	brlt	.-8      	; 0xb7e <__mulsf3_pse+0x84>
 b86:	98 3e       	cpi	r25, 0xE8	; 232
 b88:	d4 f3       	brlt	.-12     	; 0xb7e <__mulsf3_pse+0x84>
 b8a:	86 95       	lsr	r24
 b8c:	77 95       	ror	r23
 b8e:	67 95       	ror	r22
 b90:	b7 95       	ror	r27
 b92:	f7 95       	ror	r31
 b94:	e7 95       	ror	r30
 b96:	9f 5f       	subi	r25, 0xFF	; 255
 b98:	c1 f7       	brne	.-16     	; 0xb8a <__mulsf3_pse+0x90>
 b9a:	fe 2b       	or	r31, r30
 b9c:	88 0f       	add	r24, r24
 b9e:	91 1d       	adc	r25, r1
 ba0:	96 95       	lsr	r25
 ba2:	87 95       	ror	r24
 ba4:	97 f9       	bld	r25, 7
 ba6:	08 95       	ret

00000ba8 <__divmodsi4>:
 ba8:	05 2e       	mov	r0, r21
 baa:	97 fb       	bst	r25, 7
 bac:	1e f4       	brtc	.+6      	; 0xbb4 <__divmodsi4+0xc>
 bae:	00 94       	com	r0
 bb0:	0e 94 eb 05 	call	0xbd6	; 0xbd6 <__negsi2>
 bb4:	57 fd       	sbrc	r21, 7
 bb6:	07 d0       	rcall	.+14     	; 0xbc6 <__divmodsi4_neg2>
 bb8:	0e 94 fe 05 	call	0xbfc	; 0xbfc <__udivmodsi4>
 bbc:	07 fc       	sbrc	r0, 7
 bbe:	03 d0       	rcall	.+6      	; 0xbc6 <__divmodsi4_neg2>
 bc0:	4e f4       	brtc	.+18     	; 0xbd4 <__divmodsi4_exit>
 bc2:	0c 94 eb 05 	jmp	0xbd6	; 0xbd6 <__negsi2>

00000bc6 <__divmodsi4_neg2>:
 bc6:	50 95       	com	r21
 bc8:	40 95       	com	r20
 bca:	30 95       	com	r19
 bcc:	21 95       	neg	r18
 bce:	3f 4f       	sbci	r19, 0xFF	; 255
 bd0:	4f 4f       	sbci	r20, 0xFF	; 255
 bd2:	5f 4f       	sbci	r21, 0xFF	; 255

00000bd4 <__divmodsi4_exit>:
 bd4:	08 95       	ret

00000bd6 <__negsi2>:
 bd6:	90 95       	com	r25
 bd8:	80 95       	com	r24
 bda:	70 95       	com	r23
 bdc:	61 95       	neg	r22
 bde:	7f 4f       	sbci	r23, 0xFF	; 255
 be0:	8f 4f       	sbci	r24, 0xFF	; 255
 be2:	9f 4f       	sbci	r25, 0xFF	; 255
 be4:	08 95       	ret

00000be6 <__muluhisi3>:
 be6:	0e 94 20 06 	call	0xc40	; 0xc40 <__umulhisi3>
 bea:	a5 9f       	mul	r26, r21
 bec:	90 0d       	add	r25, r0
 bee:	b4 9f       	mul	r27, r20
 bf0:	90 0d       	add	r25, r0
 bf2:	a4 9f       	mul	r26, r20
 bf4:	80 0d       	add	r24, r0
 bf6:	91 1d       	adc	r25, r1
 bf8:	11 24       	eor	r1, r1
 bfa:	08 95       	ret

00000bfc <__udivmodsi4>:
 bfc:	a1 e2       	ldi	r26, 0x21	; 33
 bfe:	1a 2e       	mov	r1, r26
 c00:	aa 1b       	sub	r26, r26
 c02:	bb 1b       	sub	r27, r27
 c04:	fd 01       	movw	r30, r26
 c06:	0d c0       	rjmp	.+26     	; 0xc22 <__udivmodsi4_ep>

00000c08 <__udivmodsi4_loop>:
 c08:	aa 1f       	adc	r26, r26
 c0a:	bb 1f       	adc	r27, r27
 c0c:	ee 1f       	adc	r30, r30
 c0e:	ff 1f       	adc	r31, r31
 c10:	a2 17       	cp	r26, r18
 c12:	b3 07       	cpc	r27, r19
 c14:	e4 07       	cpc	r30, r20
 c16:	f5 07       	cpc	r31, r21
 c18:	20 f0       	brcs	.+8      	; 0xc22 <__udivmodsi4_ep>
 c1a:	a2 1b       	sub	r26, r18
 c1c:	b3 0b       	sbc	r27, r19
 c1e:	e4 0b       	sbc	r30, r20
 c20:	f5 0b       	sbc	r31, r21

00000c22 <__udivmodsi4_ep>:
 c22:	66 1f       	adc	r22, r22
 c24:	77 1f       	adc	r23, r23
 c26:	88 1f       	adc	r24, r24
 c28:	99 1f       	adc	r25, r25
 c2a:	1a 94       	dec	r1
 c2c:	69 f7       	brne	.-38     	; 0xc08 <__udivmodsi4_loop>
 c2e:	60 95       	com	r22
 c30:	70 95       	com	r23
 c32:	80 95       	com	r24
 c34:	90 95       	com	r25
 c36:	9b 01       	movw	r18, r22
 c38:	ac 01       	movw	r20, r24
 c3a:	bd 01       	movw	r22, r26
 c3c:	cf 01       	movw	r24, r30
 c3e:	08 95       	ret

00000c40 <__umulhisi3>:
 c40:	a2 9f       	mul	r26, r18
 c42:	b0 01       	movw	r22, r0
 c44:	b3 9f       	mul	r27, r19
 c46:	c0 01       	movw	r24, r0
 c48:	a3 9f       	mul	r26, r19
 c4a:	70 0d       	add	r23, r0
 c4c:	81 1d       	adc	r24, r1
 c4e:	11 24       	eor	r1, r1
 c50:	91 1d       	adc	r25, r1
 c52:	b2 9f       	mul	r27, r18
 c54:	70 0d       	add	r23, r0
 c56:	81 1d       	adc	r24, r1
 c58:	11 24       	eor	r1, r1
 c5a:	91 1d       	adc	r25, r1
 c5c:	08 95       	ret

00000c5e <_exit>:
 c5e:	f8 94       	cli

00000c60 <__stop_program>:
 c60:	ff cf       	rjmp	.-2      	; 0xc60 <__stop_program>
